target datalayout = "e-m:e-p270:32:32-p271:32:32-p272:64:64-i64:64-i128:128-f80:128-n8:16:32:64-S128"
target triple = "x86_64-unknown-linux-gnu"

%struct.iovec = type { ptr, i64 }
%struct.QEMUIOVector = type { ptr, i32, %union.anon }
%union.anon = type { %struct.anon }
%struct.anon = type { i32, %struct.iovec }
%struct.anon.0 = type { [12 x i8], i64 }

@.str.1 = private unnamed_addr constant [19 x i8] c"../qemu/util/iov.c\00", align 1
@.str.5 = private unnamed_addr constant [19 x i8] c"qiov->nalloc != -1\00", align 1
@__PRETTY_FUNCTION__.qemu_iovec_add = private unnamed_addr constant [52 x i8] c"void qemu_iovec_add(QEMUIOVector *, void *, size_t)\00", align 1

; Function Attrs: nounwind sspstrong uwtable
define dso_local void @qemu_iovec_add(ptr noundef %qiov, ptr noundef %base, i64 noundef %len) #0 {
entry:
  %qiov.addr = alloca ptr, align 8
  %base.addr = alloca ptr, align 8
  %len.addr = alloca i64, align 8
  store ptr %qiov, ptr %qiov.addr, align 8
  store ptr %base, ptr %base.addr, align 8
  store i64 %len, ptr %len.addr, align 8
  %0 = load ptr, ptr %qiov.addr, align 8
  %1 = getelementptr inbounds %struct.QEMUIOVector, ptr %0, i32 0, i32 2
  %nalloc = getelementptr inbounds %struct.anon, ptr %1, i32 0, i32 0
  %2 = load i32, ptr %nalloc, align 8
  %cmp = icmp ne i32 %2, -1
  br i1 %cmp, label %if.then, label %if.else

if.then:                                          ; preds = %entry
  br label %if.end

if.else:                                          ; preds = %entry
  call void @__assert_fail(ptr noundef @.str.5, ptr noundef @.str.1, i32 noundef 297, ptr noundef @__PRETTY_FUNCTION__.qemu_iovec_add) #9
  unreachable

if.end:                                           ; preds = %if.then
  %3 = load ptr, ptr %qiov.addr, align 8
  %niov = getelementptr inbounds %struct.QEMUIOVector, ptr %3, i32 0, i32 1
  %4 = load i32, ptr %niov, align 8
  %5 = load ptr, ptr %qiov.addr, align 8
  %6 = getelementptr inbounds %struct.QEMUIOVector, ptr %5, i32 0, i32 2
  %nalloc1 = getelementptr inbounds %struct.anon, ptr %6, i32 0, i32 0
  %7 = load i32, ptr %nalloc1, align 8
  %cmp2 = icmp eq i32 %4, %7
  br i1 %cmp2, label %if.then3, label %if.end8

if.then3:                                         ; preds = %if.end
  %8 = load ptr, ptr %qiov.addr, align 8
  %9 = getelementptr inbounds %struct.QEMUIOVector, ptr %8, i32 0, i32 2
  %nalloc4 = getelementptr inbounds %struct.anon, ptr %9, i32 0, i32 0
  %10 = load i32, ptr %nalloc4, align 8
  %mul = mul i32 2, %10
  %add = add i32 %mul, 1
  %11 = load ptr, ptr %qiov.addr, align 8
  %12 = getelementptr inbounds %struct.QEMUIOVector, ptr %11, i32 0, i32 2
  %nalloc5 = getelementptr inbounds %struct.anon, ptr %12, i32 0, i32 0
  store i32 %add, ptr %nalloc5, align 8
  %13 = load ptr, ptr %qiov.addr, align 8
  %iov = getelementptr inbounds %struct.QEMUIOVector, ptr %13, i32 0, i32 0
  %14 = load ptr, ptr %iov, align 8
  %15 = load ptr, ptr %qiov.addr, align 8
  %16 = getelementptr inbounds %struct.QEMUIOVector, ptr %15, i32 0, i32 2
  %nalloc6 = getelementptr inbounds %struct.anon, ptr %16, i32 0, i32 0
  %17 = load i32, ptr %nalloc6, align 8
  %conv = sext i32 %17 to i64
  %call = call ptr @g_realloc_n(ptr noundef %14, i64 noundef %conv, i64 noundef 16)
  %18 = load ptr, ptr %qiov.addr, align 8
  %iov7 = getelementptr inbounds %struct.QEMUIOVector, ptr %18, i32 0, i32 0
  store ptr %call, ptr %iov7, align 8
  br label %if.end8

if.end8:                                          ; preds = %if.then3, %if.end
  %19 = load ptr, ptr %base.addr, align 8
  %20 = load ptr, ptr %qiov.addr, align 8
  %iov9 = getelementptr inbounds %struct.QEMUIOVector, ptr %20, i32 0, i32 0
  %21 = load ptr, ptr %iov9, align 8
  %22 = load ptr, ptr %qiov.addr, align 8
  %niov10 = getelementptr inbounds %struct.QEMUIOVector, ptr %22, i32 0, i32 1
  %23 = load i32, ptr %niov10, align 8
  %idxprom = sext i32 %23 to i64
  %arrayidx = getelementptr %struct.iovec, ptr %21, i64 %idxprom
  %iov_base = getelementptr inbounds %struct.iovec, ptr %arrayidx, i32 0, i32 0
  store ptr %19, ptr %iov_base, align 8
  %24 = load i64, ptr %len.addr, align 8
  %25 = load ptr, ptr %qiov.addr, align 8
  %iov11 = getelementptr inbounds %struct.QEMUIOVector, ptr %25, i32 0, i32 0
  %26 = load ptr, ptr %iov11, align 8
  %27 = load ptr, ptr %qiov.addr, align 8
  %niov12 = getelementptr inbounds %struct.QEMUIOVector, ptr %27, i32 0, i32 1
  %28 = load i32, ptr %niov12, align 8
  %idxprom13 = sext i32 %28 to i64
  %arrayidx14 = getelementptr %struct.iovec, ptr %26, i64 %idxprom13
  %iov_len = getelementptr inbounds %struct.iovec, ptr %arrayidx14, i32 0, i32 1
  store i64 %24, ptr %iov_len, align 8
  %29 = load i64, ptr %len.addr, align 8
  %30 = load ptr, ptr %qiov.addr, align 8
  %31 = getelementptr inbounds %struct.QEMUIOVector, ptr %30, i32 0, i32 2
  %size = getelementptr inbounds %struct.anon.0, ptr %31, i32 0, i32 1
  %32 = load i64, ptr %size, align 8
  %add15 = add i64 %32, %29
  store i64 %add15, ptr %size, align 8
  %33 = load ptr, ptr %qiov.addr, align 8
  %niov16 = getelementptr inbounds %struct.QEMUIOVector, ptr %33, i32 0, i32 1
  %34 = load i32, ptr %niov16, align 8
  %inc = add i32 %34, 1
  store i32 %inc, ptr %niov16, align 8
  ret void
}