; Function Attrs: nounwind sspstrong uwtable
define dso_local void @qemu_iovec_add(ptr noundef captures(none) %qiov, ptr noundef %base, i64 noundef %len) local_unnamed_addr #0 {
entry:
  %0 = getelementptr inbounds nuw i8, ptr %qiov, i64 16
  %1 = load i32, ptr %0, align 8
  %cmp.not = icmp eq i32 %1, -1
  br i1 %cmp.not, label %if.else, label %if.end

if.else:                                          ; preds = %entry
  tail call void @__assert_fail(ptr noundef nonnull @.str.5, ptr noundef nonnull @.str.1, i32 noundef 297, ptr noundef nonnull @__PRETTY_FUNCTION__.qemu_iovec_add) #17
  unreachable

if.end:                                           ; preds = %entry
  %niov = getelementptr inbounds nuw i8, ptr %qiov, i64 8
  %2 = load i32, ptr %niov, align 8
  %cmp2 = icmp eq i32 %2, %1
  %.pre = load ptr, ptr %qiov, align 8
  br i1 %cmp2, label %if.then3, label %if.end8

if.then3:                                         ; preds = %if.end
  %mul = shl i32 %1, 1
  %add = or disjoint i32 %mul, 1
  store i32 %add, ptr %0, align 8
  %conv = sext i32 %add to i64
  %call = tail call ptr @g_realloc_n(ptr noundef %.pre, i64 noundef %conv, i64 noundef 16) #19
  store ptr %call, ptr %qiov, align 8
  %.pre15 = load i32, ptr %niov, align 8
  br label %if.end8

if.end8:                                          ; preds = %if.then3, %if.end
  %3 = phi i32 [ %.pre15, %if.then3 ], [ %2, %if.end ]
  %4 = phi ptr [ %call, %if.then3 ], [ %.pre, %if.end ]
  %idxprom = sext i32 %3 to i64
  %arrayidx = getelementptr %struct.iovec, ptr %4, i64 %idxprom
  store ptr %base, ptr %arrayidx, align 8
  %5 = load ptr, ptr %qiov, align 8
  %6 = load i32, ptr %niov, align 8
  %idxprom13 = sext i32 %6 to i64
  %iov_len = getelementptr %struct.iovec, ptr %5, i64 %idxprom13, i32 1
  store i64 %len, ptr %iov_len, align 8
  %size = getelementptr inbounds nuw i8, ptr %qiov, i64 32
  %7 = load i64, ptr %size, align 8
  %add15 = add i64 %7, %len
  store i64 %add15, ptr %size, align 8
  %8 = load i32, ptr %niov, align 8
  %inc = add i32 %8, 1
  store i32 %inc, ptr %niov, align 8
  ret void
}